target datalayout = "e-m:e-p270:32:32-p271:32:32-p272:64:64-i64:64-i128:128-f80:128-n8:16:32:64-S128"
target triple = "x86_64-pc-linux-gnu"

%struct.jpeg_compress_struct = type { ptr, ptr, ptr, ptr, i32, i32, ptr, i32, i32, i32, i32, double, i32, i32, i32, ptr, [4 x ptr], [4 x ptr], [4 x ptr], [16 x i8], [16 x i8], [16 x i8], i32, ptr, i32, i32, i32, i32, i32, i32, i32, i32, i32, i8, i8, i8, i16, i16, i32, i32, i32, i32, i32, i32, i32, [4 x ptr], i32, i32, i32, [10 x i32], i32, i32, i32, i32, ptr, ptr, ptr, ptr, ptr, ptr, ptr, ptr, ptr, ptr, i32 }
%struct.jpeg_error_mgr = type { ptr, ptr, ptr, ptr, ptr, i32, %union.anon, i32, i64, ptr, i32, ptr, i32, i32 }
%union.anon = type { [8 x i32], [48 x i8] }
%struct.my_mem_destination_mgr = type { %struct.jpeg_destination_mgr, ptr, ptr, ptr, ptr, i64, i32 }
%struct.jpeg_destination_mgr = type { ptr, i64, ptr, ptr, ptr }

; Function Attrs: nounwind uwtable
define internal i32 @empty_mem_output_buffer(ptr noundef %0) #0 {
  %2 = alloca ptr, align 8
  %3 = alloca i64, align 8
  %4 = alloca ptr, align 8
  %5 = alloca ptr, align 8
  store ptr %0, ptr %2, align 8, !tbaa !3
  call void @llvm.lifetime.start.p0(i64 8, ptr %3) #5
  call void @llvm.lifetime.start.p0(i64 8, ptr %4) #5
  call void @llvm.lifetime.start.p0(i64 8, ptr %5) #5
  %6 = load ptr, ptr %2, align 8, !tbaa !3
  %7 = getelementptr inbounds nuw %struct.jpeg_compress_struct, ptr %6, i32 0, i32 6
  %8 = load ptr, ptr %7, align 8, !tbaa !35
  store ptr %8, ptr %5, align 8, !tbaa !39
  %9 = load ptr, ptr %5, align 8, !tbaa !39
  %10 = getelementptr inbounds nuw %struct.my_mem_destination_mgr, ptr %9, i32 0, i32 6
  %11 = load i32, ptr %10, align 8, !tbaa !52
  %12 = icmp ne i32 %11, 0
  br i1 %12, label %24, label %13

13:                                               ; preds = %1
  %14 = load ptr, ptr %2, align 8, !tbaa !3
  %15 = getelementptr inbounds nuw %struct.jpeg_compress_struct, ptr %14, i32 0, i32 0
  %16 = load ptr, ptr %15, align 8, !tbaa !14
  %17 = getelementptr inbounds nuw %struct.jpeg_error_mgr, ptr %16, i32 0, i32 5
  store i32 23, ptr %17, align 8, !tbaa !31
  %18 = load ptr, ptr %2, align 8, !tbaa !3
  %19 = getelementptr inbounds nuw %struct.jpeg_compress_struct, ptr %18, i32 0, i32 0
  %20 = load ptr, ptr %19, align 8, !tbaa !14
  %21 = getelementptr inbounds nuw %struct.jpeg_error_mgr, ptr %20, i32 0, i32 0
  %22 = load ptr, ptr %21, align 8, !tbaa !34
  %23 = load ptr, ptr %2, align 8, !tbaa !3
  call void %22(ptr noundef %23)
  br label %24

24:                                               ; preds = %13, %1
  %25 = load ptr, ptr %5, align 8, !tbaa !39
  %26 = getelementptr inbounds nuw %struct.my_mem_destination_mgr, ptr %25, i32 0, i32 5
  %27 = load i64, ptr %26, align 8, !tbaa !56
  %28 = mul i64 %27, 2
  store i64 %28, ptr %3, align 8, !tbaa !53
  %29 = load i64, ptr %3, align 8, !tbaa !53
  %30 = call noalias ptr @malloc(i64 noundef %29) #6
  store ptr %30, ptr %4, align 8, !tbaa !49
  %31 = load ptr, ptr %4, align 8, !tbaa !49
  %32 = icmp eq ptr %31, null
  br i1 %32, label %33, label %49

33:                                               ; preds = %24
  %34 = load ptr, ptr %2, align 8, !tbaa !3
  %35 = getelementptr inbounds nuw %struct.jpeg_compress_struct, ptr %34, i32 0, i32 0
  %36 = load ptr, ptr %35, align 8, !tbaa !14
  %37 = getelementptr inbounds nuw %struct.jpeg_error_mgr, ptr %36, i32 0, i32 5
  store i32 54, ptr %37, align 8, !tbaa !31
  %38 = load ptr, ptr %2, align 8, !tbaa !3
  %39 = getelementptr inbounds nuw %struct.jpeg_compress_struct, ptr %38, i32 0, i32 0
  %40 = load ptr, ptr %39, align 8, !tbaa !14
  %41 = getelementptr inbounds nuw %struct.jpeg_error_mgr, ptr %40, i32 0, i32 6
  %42 = getelementptr inbounds [8 x i32], ptr %41, i64 0, i64 0
  store i32 10, ptr %42, align 4, !tbaa !54
  %43 = load ptr, ptr %2, align 8, !tbaa !3
  %44 = getelementptr inbounds nuw %struct.jpeg_compress_struct, ptr %43, i32 0, i32 0
  %45 = load ptr, ptr %44, align 8, !tbaa !14
  %46 = getelementptr inbounds nuw %struct.jpeg_error_mgr, ptr %45, i32 0, i32 0
  %47 = load ptr, ptr %46, align 8, !tbaa !34
  %48 = load ptr, ptr %2, align 8, !tbaa !3
  call void %47(ptr noundef %48)
  br label %49

49:                                               ; preds = %33, %24
  %50 = load ptr, ptr %4, align 8, !tbaa !49
  %51 = load ptr, ptr %5, align 8, !tbaa !39
  %52 = getelementptr inbounds nuw %struct.my_mem_destination_mgr, ptr %51, i32 0, i32 4
  %53 = load ptr, ptr %52, align 8, !tbaa !44
  %54 = load ptr, ptr %5, align 8, !tbaa !39
  %55 = getelementptr inbounds nuw %struct.my_mem_destination_mgr, ptr %54, i32 0, i32 5
  %56 = load i64, ptr %55, align 8, !tbaa !56
  call void @llvm.memcpy.p0.p0.i64(ptr align 1 %50, ptr align 1 %53, i64 %56, i1 false)
  %57 = load ptr, ptr %5, align 8, !tbaa !39
  %58 = getelementptr inbounds nuw %struct.my_mem_destination_mgr, ptr %57, i32 0, i32 3
  %59 = load ptr, ptr %58, align 8, !tbaa !40
  call void @free(ptr noundef %59) #5
  %60 = load ptr, ptr %4, align 8, !tbaa !49
  %61 = load ptr, ptr %5, align 8, !tbaa !39
  %62 = getelementptr inbounds nuw %struct.my_mem_destination_mgr, ptr %61, i32 0, i32 3
  store ptr %60, ptr %62, align 8, !tbaa !40
  %63 = load ptr, ptr %4, align 8, !tbaa !49
  %64 = load ptr, ptr %5, align 8, !tbaa !39
  %65 = getelementptr inbounds nuw %struct.my_mem_destination_mgr, ptr %64, i32 0, i32 5
  %66 = load i64, ptr %65, align 8, !tbaa !56
  %67 = getelementptr inbounds nuw i8, ptr %63, i64 %66
  %68 = load ptr, ptr %5, align 8, !tbaa !39
  %69 = getelementptr inbounds nuw %struct.my_mem_destination_mgr, ptr %68, i32 0, i32 0
  %70 = getelementptr inbounds nuw %struct.jpeg_destination_mgr, ptr %69, i32 0, i32 0
  store ptr %67, ptr %70, align 8, !tbaa !55
  %71 = load ptr, ptr %5, align 8, !tbaa !39
  %72 = getelementptr inbounds nuw %struct.my_mem_destination_mgr, ptr %71, i32 0, i32 5
  %73 = load i64, ptr %72, align 8, !tbaa !56
  %74 = load ptr, ptr %5, align 8, !tbaa !39
  %75 = getelementptr inbounds nuw %struct.my_mem_destination_mgr, ptr %74, i32 0, i32 0
  %76 = getelementptr inbounds nuw %struct.jpeg_destination_mgr, ptr %75, i32 0, i32 1
  store i64 %73, ptr %76, align 8, !tbaa !57
  %77 = load ptr, ptr %4, align 8, !tbaa !49
  %78 = load ptr, ptr %5, align 8, !tbaa !39
  %79 = getelementptr inbounds nuw %struct.my_mem_destination_mgr, ptr %78, i32 0, i32 4
  store ptr %77, ptr %79, align 8, !tbaa !44
  %80 = load i64, ptr %3, align 8, !tbaa !53
  %81 = load ptr, ptr %5, align 8, !tbaa !39
  %82 = getelementptr inbounds nuw %struct.my_mem_destination_mgr, ptr %81, i32 0, i32 5
  store i64 %80, ptr %82, align 8, !tbaa !56
  call void @llvm.lifetime.end.p0(i64 8, ptr %5) #5
  call void @llvm.lifetime.end.p0(i64 8, ptr %4) #5
  call void @llvm.lifetime.end.p0(i64 8, ptr %3) #5
  ret i32 1
}