; Function Attrs: nounwind uwtable
define internal noundef i32 @empty_mem_output_buffer(ptr noundef %0) #0 {
  %2 = getelementptr inbounds nuw i8, ptr %0, i64 40
  %3 = load ptr, ptr %2, align 8, !tbaa !29
  %4 = getelementptr inbounds nuw i8, ptr %3, i64 80
  %5 = load i32, ptr %4, align 8, !tbaa !45
  %.not = icmp eq i32 %5, 0
  br i1 %.not, label %6, label %10

6:                                                ; preds = %1
  %7 = load ptr, ptr %0, align 8, !tbaa !3
  %8 = getelementptr inbounds nuw i8, ptr %7, i64 40
  store i32 23, ptr %8, align 8, !tbaa !24
  %9 = load ptr, ptr %7, align 8, !tbaa !28
  tail call void %9(ptr noundef nonnull %0) #7
  br label %10

10:                                               ; preds = %6, %1
  %11 = getelementptr inbounds nuw i8, ptr %3, i64 72
  %12 = load i64, ptr %11, align 8, !tbaa !50
  %13 = shl i64 %12, 1
  %14 = tail call noalias ptr @malloc(i64 noundef %13) #8
  %15 = icmp eq ptr %14, null
  br i1 %15, label %16, label %22

16:                                               ; preds = %10
  %17 = load ptr, ptr %0, align 8, !tbaa !3
  %18 = getelementptr inbounds nuw i8, ptr %17, i64 40
  store i32 54, ptr %18, align 8, !tbaa !24
  %19 = getelementptr inbounds nuw i8, ptr %17, i64 44
  store i32 10, ptr %19, align 4, !tbaa !48
  %20 = load ptr, ptr %0, align 8, !tbaa !3
  %21 = load ptr, ptr %20, align 8, !tbaa !28
  tail call void %21(ptr noundef nonnull %0) #7
  %.pre = load i64, ptr %11, align 8, !tbaa !50
  br label %22

22:                                               ; preds = %16, %10
  %23 = phi i64 [ %.pre, %16 ], [ %12, %10 ]
  %24 = getelementptr inbounds nuw i8, ptr %3, i64 64
  %25 = load ptr, ptr %24, align 8, !tbaa !41
  tail call void @llvm.memcpy.p0.p0.i64(ptr align 1 %14, ptr align 1 %25, i64 %23, i1 false)
  %26 = getelementptr inbounds nuw i8, ptr %3, i64 56
  %27 = load ptr, ptr %26, align 8, !tbaa !47
  tail call void @free(ptr noundef %27) #7
  store ptr %14, ptr %26, align 8, !tbaa !47
  %28 = load i64, ptr %11, align 8, !tbaa !50
  %29 = getelementptr inbounds nuw i8, ptr %14, i64 %28
  store ptr %29, ptr %3, align 8, !tbaa !49
  %30 = getelementptr inbounds nuw i8, ptr %3, i64 8
  store i64 %28, ptr %30, align 8, !tbaa !51
  store ptr %14, ptr %24, align 8, !tbaa !41
  store i64 %13, ptr %11, align 8, !tbaa !50
  ret i32 1
}